target datalayout = "e-m:e-p270:32:32-p271:32:32-p272:64:64-i64:64-i128:128-f80:128-n8:16:32:64-S128"
target triple = "x86_64-pc-linux-gnu"

%class.MarkedFileReader = type { %class.FileReader, i64 }
%class.FileReader = type { ptr, ptr }

@_ZTV16MarkedFileReader = linkonce_odr hidden unnamed_addr constant { [3 x ptr] } { [3 x ptr] [ptr null, ptr null, ptr @_ZN10FileReader12set_positionEl] }, comdat, align 8

; Function Attrs: mustprogress nounwind uwtable
define hidden void @_ZN16MarkedFileReaderD2Ev(ptr noundef nonnull align 8 dereferenceable(24) %0) unnamed_addr #1 align 2 {
  %2 = alloca ptr, align 8
  store ptr %0, ptr %2, align 8
  %3 = load ptr, ptr %2, align 8
  store ptr getelementptr inbounds inrange(-16, 8) ({ [3 x ptr] }, ptr @_ZTV16MarkedFileReader, i32 0, i32 0, i32 2), ptr %3, align 8
  %4 = getelementptr inbounds %class.MarkedFileReader, ptr %3, i32 0, i32 1
  %5 = load i64, ptr %4, align 8
  %6 = icmp ne i64 %5, -1
  br i1 %6, label %7, label %14

7:                                                ; preds = %1
  %8 = getelementptr inbounds %class.MarkedFileReader, ptr %3, i32 0, i32 1
  %9 = load i64, ptr %8, align 8
  %10 = load ptr, ptr %3, align 8
  %11 = getelementptr inbounds ptr, ptr %10, i64 0
  %12 = load ptr, ptr %11, align 8
  %13 = call noundef zeroext i1 %12(ptr noundef nonnull align 8 dereferenceable(16) %3, i64 noundef %9)
  br label %14

14:                                               ; preds = %7, %1
  ret void
}