; Function Attrs: mustprogress nofree nounwind uwtable
define hidden void @_ZN16MarkedFileReaderD2Ev(ptr nocapture noundef nonnull align 8 dereferenceable(24) %0) unnamed_addr #3 align 2 {
  store ptr getelementptr inbounds inrange(-16, 8) (i8, ptr @_ZTV16MarkedFileReader, i64 16), ptr %0, align 8
  %2 = getelementptr inbounds i8, ptr %0, i64 16
  %3 = load i64, ptr %2, align 8
  %.not = icmp eq i64 %3, -1
  br i1 %.not, label %8, label %4

4:                                                ; preds = %1
  %5 = getelementptr inbounds i8, ptr %0, i64 8
  %6 = load ptr, ptr %5, align 8
  %7 = tail call i32 @fseek(ptr noundef %6, i64 noundef %3, i32 noundef 0)
  br label %8

8:                                                ; preds = %4, %1
  ret void
}